target datalayout = "e-m:e-p270:32:32-p271:32:32-p272:64:64-i64:64-i128:128-f80:128-n8:16:32:64-S128"
target triple = "x86_64-pc-linux-gnu"

@_ZN8LightGBM8DenseBinIhLb1EEC1Ei = weak_odr unnamed_addr alias void (ptr, i32), ptr @_ZN8LightGBM8DenseBinIhLb1EEC2Ei
@_ZN8LightGBM8DenseBinIhLb0EEC1Ei = weak_odr unnamed_addr alias void (ptr, i32), ptr @_ZN8LightGBM8DenseBinIhLb0EEC2Ei
@_ZN8LightGBM8DenseBinItLb0EEC1Ei = weak_odr unnamed_addr alias void (ptr, i32), ptr @_ZN8LightGBM8DenseBinItLb0EEC2Ei
@_ZN8LightGBM8DenseBinIjLb0EEC1Ei = weak_odr unnamed_addr alias void (ptr, i32), ptr @_ZN8LightGBM8DenseBinIjLb0EEC2Ei

; Function Attrs: mustprogress uwtable
define noundef ptr @_ZN8LightGBM3Bin14CreateDenseBinEii(i32 noundef %0, i32 noundef %1) #1 align 2 personality ptr @__gxx_personality_v0 {
  %3 = alloca ptr, align 8
  %4 = alloca i32, align 4
  %5 = alloca i32, align 4
  %6 = alloca ptr, align 8
  %7 = alloca i32, align 4
  store i32 %0, ptr %4, align 4, !tbaa !11
  store i32 %1, ptr %5, align 4, !tbaa !11
  %8 = load i32, ptr %5, align 4, !tbaa !11
  %9 = icmp sle i32 %8, 16
  br i1 %9, label %10, label %18

10:                                               ; preds = %2
  %11 = call noalias noundef nonnull ptr @_Znwm(i64 noundef 64) #29
  %12 = load i32, ptr %4, align 4, !tbaa !11
  invoke void @_ZN8LightGBM8DenseBinIhLb1EEC1Ei(ptr noundef nonnull align 8 dereferenceable(64) %11, i32 noundef %12)
          to label %13 unwind label %14

13:                                               ; preds = %10
  store ptr %11, ptr %3, align 8
  br label %48

14:                                               ; preds = %10
  %15 = landingpad { ptr, i32 }
          cleanup
  %16 = extractvalue { ptr, i32 } %15, 0
  store ptr %16, ptr %6, align 8
  %17 = extractvalue { ptr, i32 } %15, 1
  store i32 %17, ptr %7, align 4
  call void @_ZdlPv(ptr noundef %11) #28
  br label %50

18:                                               ; preds = %2
  %19 = load i32, ptr %5, align 4, !tbaa !11
  %20 = icmp sle i32 %19, 256
  br i1 %20, label %21, label %29

21:                                               ; preds = %18
  %22 = call noalias noundef nonnull ptr @_Znwm(i64 noundef 64) #29
  %23 = load i32, ptr %4, align 4, !tbaa !11
  invoke void @_ZN8LightGBM8DenseBinIhLb0EEC1Ei(ptr noundef nonnull align 8 dereferenceable(64) %22, i32 noundef %23)
          to label %24 unwind label %25

24:                                               ; preds = %21
  store ptr %22, ptr %3, align 8
  br label %48

25:                                               ; preds = %21
  %26 = landingpad { ptr, i32 }
          cleanup
  %27 = extractvalue { ptr, i32 } %26, 0
  store ptr %27, ptr %6, align 8
  %28 = extractvalue { ptr, i32 } %26, 1
  store i32 %28, ptr %7, align 4
  call void @_ZdlPv(ptr noundef %22) #28
  br label %50

29:                                               ; preds = %18
  %30 = load i32, ptr %5, align 4, !tbaa !11
  %31 = icmp sle i32 %30, 65536
  br i1 %31, label %32, label %40

32:                                               ; preds = %29
  %33 = call noalias noundef nonnull ptr @_Znwm(i64 noundef 64) #29
  %34 = load i32, ptr %4, align 4, !tbaa !11
  invoke void @_ZN8LightGBM8DenseBinItLb0EEC1Ei(ptr noundef nonnull align 8 dereferenceable(64) %33, i32 noundef %34)
          to label %35 unwind label %36

35:                                               ; preds = %32
  store ptr %33, ptr %3, align 8
  br label %48

36:                                               ; preds = %32
  %37 = landingpad { ptr, i32 }
          cleanup
  %38 = extractvalue { ptr, i32 } %37, 0
  store ptr %38, ptr %6, align 8
  %39 = extractvalue { ptr, i32 } %37, 1
  store i32 %39, ptr %7, align 4
  call void @_ZdlPv(ptr noundef %33) #28
  br label %50

40:                                               ; preds = %29
  %41 = call noalias noundef nonnull ptr @_Znwm(i64 noundef 64) #29
  %42 = load i32, ptr %4, align 4, !tbaa !11
  invoke void @_ZN8LightGBM8DenseBinIjLb0EEC1Ei(ptr noundef nonnull align 8 dereferenceable(64) %41, i32 noundef %42)
          to label %43 unwind label %44

43:                                               ; preds = %40
  store ptr %41, ptr %3, align 8
  br label %48

44:                                               ; preds = %40
  %45 = landingpad { ptr, i32 }
          cleanup
  %46 = extractvalue { ptr, i32 } %45, 0
  store ptr %46, ptr %6, align 8
  %47 = extractvalue { ptr, i32 } %45, 1
  store i32 %47, ptr %7, align 4
  call void @_ZdlPv(ptr noundef %41) #28
  br label %50

48:                                               ; preds = %43, %35, %24, %13
  %49 = load ptr, ptr %3, align 8
  ret ptr %49

50:                                               ; preds = %44, %36, %25, %14
  %51 = load ptr, ptr %6, align 8
  %52 = load i32, ptr %7, align 4
  %53 = insertvalue { ptr, i32 } poison, ptr %51, 0
  %54 = insertvalue { ptr, i32 } %53, i32 %52, 1
  resume { ptr, i32 } %54
}