; Function Attrs: mustprogress uwtable
define noundef nonnull ptr @_ZN8LightGBM3Bin14CreateDenseBinEii(i32 noundef %0, i32 noundef %1) local_unnamed_addr #1 align 2 personality ptr @__gxx_personality_v0 {
  %3 = icmp slt i32 %1, 17
  br i1 %3, label %4, label %8

4:                                                ; preds = %2
  %5 = tail call noalias noundef nonnull dereferenceable(64) ptr @_Znwm(i64 noundef 64) #38
  invoke void @_ZN8LightGBM8DenseBinIhLb1EEC1Ei(ptr noundef nonnull align 8 dereferenceable(64) %5, i32 noundef %0)
          to label %23 unwind label %6

6:                                                ; preds = %4
  %7 = landingpad { ptr, i32 }
          cleanup
  br label %24

8:                                                ; preds = %2
  %9 = icmp samesign ult i32 %1, 257
  br i1 %9, label %10, label %14

10:                                               ; preds = %8
  %11 = tail call noalias noundef nonnull dereferenceable(64) ptr @_Znwm(i64 noundef 64) #38
  invoke void @_ZN8LightGBM8DenseBinIhLb0EEC1Ei(ptr noundef nonnull align 8 dereferenceable(64) %11, i32 noundef %0)
          to label %23 unwind label %12

12:                                               ; preds = %10
  %13 = landingpad { ptr, i32 }
          cleanup
  br label %24

14:                                               ; preds = %8
  %15 = icmp samesign ult i32 %1, 65537
  %16 = tail call noalias noundef nonnull dereferenceable(64) ptr @_Znwm(i64 noundef 64) #38
  br i1 %15, label %17, label %20

17:                                               ; preds = %14
  invoke void @_ZN8LightGBM8DenseBinItLb0EEC1Ei(ptr noundef nonnull align 8 dereferenceable(64) %16, i32 noundef %0)
          to label %23 unwind label %18

18:                                               ; preds = %17
  %19 = landingpad { ptr, i32 }
          cleanup
  br label %24

20:                                               ; preds = %14
  invoke void @_ZN8LightGBM8DenseBinIjLb0EEC1Ei(ptr noundef nonnull align 8 dereferenceable(64) %16, i32 noundef %0)
          to label %23 unwind label %21

21:                                               ; preds = %20
  %22 = landingpad { ptr, i32 }
          cleanup
  br label %24

23:                                               ; preds = %20, %17, %10, %4
  %.010 = phi ptr [ %5, %4 ], [ %11, %10 ], [ %16, %17 ], [ %16, %20 ]
  ret ptr %.010

24:                                               ; preds = %21, %18, %12, %6
  %.sink = phi ptr [ %16, %21 ], [ %16, %18 ], [ %11, %12 ], [ %5, %6 ]
  %.pn = phi { ptr, i32 } [ %22, %21 ], [ %19, %18 ], [ %13, %12 ], [ %7, %6 ]
  tail call void @_ZdlPv(ptr noundef nonnull %.sink) #37
  resume { ptr, i32 } %.pn
}